target datalayout = "e-m:e-p270:32:32-p271:32:32-p272:64:64-i64:64-i128:128-f80:128-n8:16:32:64-S128"
target triple = "x86_64-pc-linux-gnu"

%class.BarrierSet = type { ptr, %class.FakeRttiSupport, ptr, ptr, ptr, ptr, ptr }
%class.FakeRttiSupport = type <{ i64, i32, [4 x i8] }>
%class.Thread = type { %class.ThreadShadow.base, i64, [43 x i64], ptr, ptr, i32, ptr, i64, i64, %class.ThreadLocalAllocBuffer, i64, %class.ThreadHeapSampler, %class.ThreadStatisticalInfo, %class.JfrThreadLocal, ptr, ptr, ptr, ptr, ptr, ptr, i64, i32, i32, ptr, i32, i32, i32, i32, i8, ptr }
%class.ThreadShadow.base = type <{ ptr, ptr, ptr, i32 }>
%class.ThreadLocalAllocBuffer = type <{ ptr, ptr, ptr, ptr, ptr, i64, i64, i64, i64, i32, i32, i32, i32, i64, %class.AdaptiveWeightedAverage, [4 x i8] }>
%class.AdaptiveWeightedAverage = type { float, i32, i32, i8, float }
%class.ThreadHeapSampler = type { i64 }
%class.ThreadStatisticalInfo = type { i64, i64 }
%class.JfrThreadLocal = type <{ ptr, ptr, ptr, ptr, ptr, ptr, ptr, ptr, ptr, ptr, %class.RefCountHandle, i64, i64, i64, i64, i64, i64, i64, i64, i64, i64, i64, i32, i32, i32, i16, i8, i8, i8, i8, i8, [5 x i8] }>
%class.RefCountHandle = type { ptr }
%class.BarrierSetNMethod = type <{ ptr, i32, [4 x i8] }>

$_Z12jdouble_castl = comdat any

$_Z11jfloat_casti = comdat any

$_ZN6Thread7currentEv = comdat any

$_ZN10BarrierSet19barrier_set_nmethodEv = comdat any

$_ZN6Thread32set_nmethod_disarmed_guard_valueEi = comdat any

$_ZN10BarrierSet11barrier_setEv = comdat any

$_ZN10BarrierSet21barrier_set_assemblerEv = comdat any

$_ZN10BarrierSet27on_slowpath_allocation_exitEP10JavaThreadP7oopDesc = comdat any

$_ZN10BarrierSet16on_thread_createEP6Thread = comdat any

$_ZN10BarrierSet17on_thread_destroyEP6Thread = comdat any

$_ZN10BarrierSet16on_thread_detachEP6Thread = comdat any

$_ZN10BarrierSet13make_parsableEP10JavaThread = comdat any

$_ZN6Thread15current_or_nullEv = comdat any

$_ZN17BarrierSetNMethodC2Ev = comdat any

$_ZN20BarrierSetStackChunkC2Ev = comdat any

@_ZL11min_jdouble = internal global double 0.000000e+00, align 8
@_ZL11max_jdouble = internal global double 0.000000e+00, align 8
@_ZL10min_jfloat = internal global float 0.000000e+00, align 4
@_ZL10max_jfloat = internal global float 0.000000e+00, align 4
@_ZN10BarrierSet12_barrier_setE = hidden global ptr null, align 8
@_ZTV10BarrierSet = hidden unnamed_addr constant { [9 x ptr] } { [9 x ptr] [ptr null, ptr null, ptr @_ZN10BarrierSet27on_slowpath_allocation_exitEP10JavaThreadP7oopDesc, ptr @_ZN10BarrierSet16on_thread_createEP6Thread, ptr @_ZN10BarrierSet17on_thread_destroyEP6Thread, ptr @_ZN10BarrierSet16on_thread_attachEP6Thread, ptr @_ZN10BarrierSet16on_thread_detachEP6Thread, ptr @_ZN10BarrierSet13make_parsableEP10JavaThread, ptr @__cxa_pure_virtual] }, align 8
@_ZN6Thread12_thr_currentE = external thread_local global ptr, align 8
@_ZTV17BarrierSetNMethod = external unnamed_addr constant { [5 x ptr] }, align 8
@_ZTV20BarrierSetStackChunk = external unnamed_addr constant { [6 x ptr] }, align 8
@llvm.global_ctors = appending global [1 x { i32, ptr, ptr }] [{ i32, ptr, ptr } { i32 65535, ptr @_GLOBAL__sub_I_barrierSet.cpp, ptr null }]

; Function Attrs: nounwind uwtable
define internal void @__cxx_global_var_init() #0 section ".text.startup" {
  %1 = call noundef double @_Z12jdouble_castl(i64 noundef 1)
  store double %1, ptr @_ZL11min_jdouble, align 8
  ret void
}

; Function Attrs: mustprogress nounwind uwtable
define linkonce_odr hidden noundef double @_Z12jdouble_castl(i64 noundef %0) #1 comdat {
  %2 = alloca i64, align 8
  store i64 %0, ptr %2, align 8
  %3 = load double, ptr %2, align 8
  ret double %3
}

; Function Attrs: nounwind uwtable
define internal void @__cxx_global_var_init.1() #0 section ".text.startup" {
  %1 = call noundef double @_Z12jdouble_castl(i64 noundef 9218868437227405311)
  store double %1, ptr @_ZL11max_jdouble, align 8
  ret void
}

; Function Attrs: nounwind uwtable
define internal void @__cxx_global_var_init.2() #0 section ".text.startup" {
  %1 = call noundef float @_Z11jfloat_casti(i32 noundef 1)
  store float %1, ptr @_ZL10min_jfloat, align 4
  ret void
}

; Function Attrs: mustprogress nounwind uwtable
define linkonce_odr hidden noundef float @_Z11jfloat_casti(i32 noundef %0) #1 comdat {
  %2 = alloca i32, align 4
  store i32 %0, ptr %2, align 4
  %3 = load float, ptr %2, align 4
  ret float %3
}

; Function Attrs: nounwind uwtable
define internal void @__cxx_global_var_init.3() #0 section ".text.startup" {
  %1 = call noundef float @_Z11jfloat_casti(i32 noundef 2139095039)
  store float %1, ptr @_ZL10max_jfloat, align 4
  ret void
}

; Function Attrs: mustprogress nounwind uwtable
define hidden void @_ZN10BarrierSet15set_barrier_setEPS_(ptr noundef %0) #1 align 2 {
  %2 = alloca ptr, align 8
  store ptr %0, ptr %2, align 8
  %3 = load ptr, ptr %2, align 8
  store ptr %3, ptr @_ZN10BarrierSet12_barrier_setE, align 8
  %4 = load ptr, ptr @_ZN10BarrierSet12_barrier_setE, align 8
  %5 = call noundef ptr @_ZN6Thread7currentEv()
  %6 = load ptr, ptr %4, align 8
  %7 = getelementptr inbounds ptr, ptr %6, i64 1
  %8 = load ptr, ptr %7, align 8
  call void %8(ptr noundef nonnull align 8 dereferenceable(64) %4, ptr noundef %5)
  ret void
}

; Function Attrs: mustprogress nounwind uwtable
define linkonce_odr hidden noundef ptr @_ZN6Thread7currentEv() #1 comdat align 2 {
  %1 = alloca ptr, align 8
  %2 = call noundef ptr @_ZN6Thread15current_or_nullEv()
  store ptr %2, ptr %1, align 8
  %3 = load ptr, ptr %1, align 8
  ret ptr %3
}

; Function Attrs: mustprogress nounwind uwtable
define hidden void @_ZN10BarrierSetC2EP19BarrierSetAssemblerP12BarrierSetC1P12BarrierSetC2P17BarrierSetNMethodP20BarrierSetStackChunkRK15FakeRttiSupportIS_NS_4NameEE(ptr noundef nonnull align 8 dereferenceable(64) %0, ptr noundef %1, ptr noundef %2, ptr noundef %3, ptr noundef %4, ptr noundef %5, ptr noundef nonnull align 8 dereferenceable(12) %6) unnamed_addr #1 align 2 {
  %8 = alloca ptr, align 8
  %9 = alloca ptr, align 8
  %10 = alloca ptr, align 8
  %11 = alloca ptr, align 8
  %12 = alloca ptr, align 8
  %13 = alloca ptr, align 8
  %14 = alloca ptr, align 8
  store ptr %0, ptr %8, align 8
  store ptr %1, ptr %9, align 8
  store ptr %2, ptr %10, align 8
  store ptr %3, ptr %11, align 8
  store ptr %4, ptr %12, align 8
  store ptr %5, ptr %13, align 8
  store ptr %6, ptr %14, align 8
  %15 = load ptr, ptr %8, align 8
  store ptr getelementptr inbounds inrange(-16, 56) ({ [9 x ptr] }, ptr @_ZTV10BarrierSet, i32 0, i32 0, i32 2), ptr %15, align 8
  %16 = getelementptr inbounds %class.BarrierSet, ptr %15, i32 0, i32 1
  %17 = load ptr, ptr %14, align 8
  call void @llvm.memcpy.p0.p0.i64(ptr align 8 %16, ptr align 8 %17, i64 16, i1 false)
  %18 = getelementptr inbounds %class.BarrierSet, ptr %15, i32 0, i32 2
  %19 = load ptr, ptr %9, align 8
  store ptr %19, ptr %18, align 8
  %20 = getelementptr inbounds %class.BarrierSet, ptr %15, i32 0, i32 3
  %21 = load ptr, ptr %10, align 8
  store ptr %21, ptr %20, align 8
  %22 = getelementptr inbounds %class.BarrierSet, ptr %15, i32 0, i32 4
  %23 = load ptr, ptr %11, align 8
  store ptr %23, ptr %22, align 8
  %24 = getelementptr inbounds %class.BarrierSet, ptr %15, i32 0, i32 5
  %25 = load ptr, ptr %12, align 8
  %26 = call noundef ptr @_ZL26select_barrier_set_nmethodP17BarrierSetNMethod(ptr noundef %25)
  store ptr %26, ptr %24, align 8
  %27 = getelementptr inbounds %class.BarrierSet, ptr %15, i32 0, i32 6
  %28 = load ptr, ptr %13, align 8
  %29 = call noundef ptr @_ZL30select_barrier_set_stack_chunkP20BarrierSetStackChunk(ptr noundef %28)
  store ptr %29, ptr %27, align 8
  ret void
}

; Function Attrs: nocallback nofree nounwind willreturn memory(argmem: readwrite)
declare void @llvm.memcpy.p0.p0.i64(ptr noalias nocapture writeonly, ptr noalias nocapture readonly, i64, i1 immarg) #2

; Function Attrs: mustprogress nounwind uwtable
define internal noundef ptr @_ZL26select_barrier_set_nmethodP17BarrierSetNMethod(ptr noundef %0) #1 {
  %2 = alloca i64, align 8
  %3 = alloca i8, align 1
  %4 = alloca i64, align 8
  %5 = alloca ptr, align 8
  %6 = alloca ptr, align 8
  store ptr %0, ptr %6, align 8
  %7 = load ptr, ptr %6, align 8
  %8 = icmp ne ptr %7, null
  br i1 %8, label %9, label %11

9:                                                ; preds = %1
  %10 = load ptr, ptr %6, align 8
  store ptr %10, ptr %5, align 8
  br label %16

11:                                               ; preds = %1
  store i64 16, ptr %4, align 8
  %12 = load i64, ptr %4, align 8
  store i64 %12, ptr %2, align 8
  store i8 5, ptr %3, align 1
  %13 = load i64, ptr %2, align 8
  %14 = load i8, ptr %3, align 1
  %15 = call noundef ptr @_Z12AllocateHeapm8MEMFLAGSN17AllocFailStrategy13AllocFailEnumE(i64 noundef %13, i8 noundef zeroext %14, i32 noundef 0) #6
  call void @_ZN17BarrierSetNMethodC2Ev(ptr noundef nonnull align 8 dereferenceable(12) %15)
  store ptr %15, ptr %5, align 8
  br label %16

16:                                               ; preds = %11, %9
  %17 = load ptr, ptr %5, align 8
  ret ptr %17
}

; Function Attrs: mustprogress nounwind uwtable
define internal noundef ptr @_ZL30select_barrier_set_stack_chunkP20BarrierSetStackChunk(ptr noundef %0) #1 {
  %2 = alloca i64, align 8
  %3 = alloca i8, align 1
  %4 = alloca i64, align 8
  %5 = alloca ptr, align 8
  %6 = alloca ptr, align 8
  store ptr %0, ptr %6, align 8
  %7 = load ptr, ptr %6, align 8
  %8 = icmp ne ptr %7, null
  br i1 %8, label %9, label %11

9:                                                ; preds = %1
  %10 = load ptr, ptr %6, align 8
  store ptr %10, ptr %5, align 8
  br label %16

11:                                               ; preds = %1
  store i64 8, ptr %4, align 8
  %12 = load i64, ptr %4, align 8
  store i64 %12, ptr %2, align 8
  store i8 5, ptr %3, align 1
  %13 = load i64, ptr %2, align 8
  %14 = load i8, ptr %3, align 1
  %15 = call noundef ptr @_Z12AllocateHeapm8MEMFLAGSN17AllocFailStrategy13AllocFailEnumE(i64 noundef %13, i8 noundef zeroext %14, i32 noundef 0) #6
  call void @llvm.memset.p0.i64(ptr align 8 %15, i8 0, i64 8, i1 false)
  call void @_ZN20BarrierSetStackChunkC2Ev(ptr noundef nonnull align 8 dereferenceable(8) %15) #6
  store ptr %15, ptr %5, align 8
  br label %16

16:                                               ; preds = %11, %9
  %17 = load ptr, ptr %5, align 8
  ret ptr %17
}

; Function Attrs: mustprogress nounwind uwtable
define hidden void @_ZN10BarrierSet16on_thread_attachEP6Thread(ptr noundef nonnull align 8 dereferenceable(64) %0, ptr noundef %1) unnamed_addr #1 align 2 {
  %3 = alloca ptr, align 8
  %4 = alloca ptr, align 8
  %5 = alloca ptr, align 8
  store ptr %0, ptr %3, align 8
  store ptr %1, ptr %4, align 8
  %6 = load ptr, ptr %3, align 8
  %7 = call noundef ptr @_ZN10BarrierSet19barrier_set_nmethodEv(ptr noundef nonnull align 8 dereferenceable(64) %6)
  store ptr %7, ptr %5, align 8
  %8 = load ptr, ptr %5, align 8
  %9 = icmp ne ptr %8, null
  br i1 %9, label %10, label %14

10:                                               ; preds = %2
  %11 = load ptr, ptr %4, align 8
  %12 = load ptr, ptr %5, align 8
  %13 = call noundef i32 @_ZNK17BarrierSetNMethod20disarmed_guard_valueEv(ptr noundef nonnull align 8 dereferenceable(12) %12)
  call void @_ZN6Thread32set_nmethod_disarmed_guard_valueEi(ptr noundef nonnull align 8 dereferenceable(888) %11, i32 noundef %13)
  br label %14

14:                                               ; preds = %10, %2
  ret void
}

; Function Attrs: mustprogress nounwind uwtable
define linkonce_odr hidden noundef ptr @_ZN10BarrierSet19barrier_set_nmethodEv(ptr noundef nonnull align 8 dereferenceable(64) %0) #1 comdat align 2 {
  %2 = alloca ptr, align 8
  store ptr %0, ptr %2, align 8
  %3 = load ptr, ptr %2, align 8
  %4 = getelementptr inbounds %class.BarrierSet, ptr %3, i32 0, i32 5
  %5 = load ptr, ptr %4, align 8
  ret ptr %5
}

; Function Attrs: mustprogress nounwind uwtable
define linkonce_odr hidden void @_ZN6Thread32set_nmethod_disarmed_guard_valueEi(ptr noundef nonnull align 8 dereferenceable(888) %0, i32 noundef %1) #1 comdat align 2 {
  %3 = alloca ptr, align 8
  %4 = alloca i32, align 4
  store ptr %0, ptr %3, align 8
  store i32 %1, ptr %4, align 4
  %5 = load ptr, ptr %3, align 8
  %6 = load i32, ptr %4, align 4
  %7 = zext i32 %6 to i64
  %8 = getelementptr inbounds %class.Thread, ptr %5, i32 0, i32 1
  store i64 %7, ptr %8, align 8
  ret void
}

declare noundef i32 @_ZNK17BarrierSetNMethod20disarmed_guard_valueEv(ptr noundef nonnull align 8 dereferenceable(12)) #3

; Function Attrs: mustprogress nounwind uwtable
define hidden void @_Z21gc_barrier_stubs_initv() #1 {
  %1 = alloca ptr, align 8
  %2 = alloca ptr, align 8
  %3 = call noundef ptr @_ZN10BarrierSet11barrier_setEv()
  store ptr %3, ptr %1, align 8
  %4 = load ptr, ptr %1, align 8
  %5 = call noundef ptr @_ZN10BarrierSet21barrier_set_assemblerEv(ptr noundef nonnull align 8 dereferenceable(64) %4)
  store ptr %5, ptr %2, align 8
  %6 = load ptr, ptr %2, align 8
  %7 = load ptr, ptr %6, align 8
  %8 = getelementptr inbounds ptr, ptr %7, i64 11
  %9 = load ptr, ptr %8, align 8
  call void %9(ptr noundef nonnull align 8 dereferenceable(8) %6)
  ret void
}

; Function Attrs: mustprogress nounwind uwtable
define linkonce_odr hidden noundef ptr @_ZN10BarrierSet11barrier_setEv() #1 comdat align 2 {
  %1 = load ptr, ptr @_ZN10BarrierSet12_barrier_setE, align 8
  ret ptr %1
}

; Function Attrs: mustprogress nounwind uwtable
define linkonce_odr hidden noundef ptr @_ZN10BarrierSet21barrier_set_assemblerEv(ptr noundef nonnull align 8 dereferenceable(64) %0) #1 comdat align 2 {
  %2 = alloca ptr, align 8
  store ptr %0, ptr %2, align 8
  %3 = load ptr, ptr %2, align 8
  %4 = getelementptr inbounds %class.BarrierSet, ptr %3, i32 0, i32 2
  %5 = load ptr, ptr %4, align 8
  ret ptr %5
}

; Function Attrs: mustprogress nounwind uwtable
define linkonce_odr hidden void @_ZN10BarrierSet27on_slowpath_allocation_exitEP10JavaThreadP7oopDesc(ptr noundef nonnull align 8 dereferenceable(64) %0, ptr noundef %1, ptr noundef %2) unnamed_addr #1 comdat align 2 {
  %4 = alloca ptr, align 8
  %5 = alloca ptr, align 8
  %6 = alloca ptr, align 8
  store ptr %0, ptr %4, align 8
  store ptr %1, ptr %5, align 8
  store ptr %2, ptr %6, align 8
  ret void
}

; Function Attrs: mustprogress nounwind uwtable
define linkonce_odr hidden void @_ZN10BarrierSet16on_thread_createEP6Thread(ptr noundef nonnull align 8 dereferenceable(64) %0, ptr noundef %1) unnamed_addr #1 comdat align 2 {
  %3 = alloca ptr, align 8
  %4 = alloca ptr, align 8
  store ptr %0, ptr %3, align 8
  store ptr %1, ptr %4, align 8
  ret void
}

; Function Attrs: mustprogress nounwind uwtable
define linkonce_odr hidden void @_ZN10BarrierSet17on_thread_destroyEP6Thread(ptr noundef nonnull align 8 dereferenceable(64) %0, ptr noundef %1) unnamed_addr #1 comdat align 2 {
  %3 = alloca ptr, align 8
  %4 = alloca ptr, align 8
  store ptr %0, ptr %3, align 8
  store ptr %1, ptr %4, align 8
  ret void
}

; Function Attrs: mustprogress nounwind uwtable
define linkonce_odr hidden void @_ZN10BarrierSet16on_thread_detachEP6Thread(ptr noundef nonnull align 8 dereferenceable(64) %0, ptr noundef %1) unnamed_addr #1 comdat align 2 {
  %3 = alloca ptr, align 8
  %4 = alloca ptr, align 8
  store ptr %0, ptr %3, align 8
  store ptr %1, ptr %4, align 8
  ret void
}

; Function Attrs: mustprogress nounwind uwtable
define linkonce_odr hidden void @_ZN10BarrierSet13make_parsableEP10JavaThread(ptr noundef nonnull align 8 dereferenceable(64) %0, ptr noundef %1) unnamed_addr #1 comdat align 2 {
  %3 = alloca ptr, align 8
  %4 = alloca ptr, align 8
  store ptr %0, ptr %3, align 8
  store ptr %1, ptr %4, align 8
  ret void
}

declare void @__cxa_pure_virtual() unnamed_addr

; Function Attrs: mustprogress nounwind uwtable
define linkonce_odr hidden noundef ptr @_ZN6Thread15current_or_nullEv() #1 comdat align 2 {
  %1 = call align 8 ptr @llvm.threadlocal.address.p0(ptr align 8 @_ZN6Thread12_thr_currentE)
  %2 = load ptr, ptr %1, align 8
  ret ptr %2
}

; Function Attrs: nocallback nofree nosync nounwind speculatable willreturn memory(none)
declare nonnull ptr @llvm.threadlocal.address.p0(ptr nonnull) #4

; Function Attrs: mustprogress nounwind uwtable
define linkonce_odr hidden void @_ZN17BarrierSetNMethodC2Ev(ptr noundef nonnull align 8 dereferenceable(12) %0) unnamed_addr #1 comdat align 2 {
  %2 = alloca ptr, align 8
  store ptr %0, ptr %2, align 8
  %3 = load ptr, ptr %2, align 8
  store ptr getelementptr inbounds inrange(-16, 24) ({ [5 x ptr] }, ptr @_ZTV17BarrierSetNMethod, i32 0, i32 0, i32 2), ptr %3, align 8
  %4 = getelementptr inbounds %class.BarrierSetNMethod, ptr %3, i32 0, i32 1
  store i32 1, ptr %4, align 8
  ret void
}

declare noundef ptr @_Z12AllocateHeapm8MEMFLAGSN17AllocFailStrategy13AllocFailEnumE(i64 noundef, i8 noundef zeroext, i32 noundef) #3

; Function Attrs: nocallback nofree nounwind willreturn memory(argmem: write)
declare void @llvm.memset.p0.i64(ptr nocapture writeonly, i8, i64, i1 immarg) #5

; Function Attrs: mustprogress nounwind uwtable
define linkonce_odr hidden void @_ZN20BarrierSetStackChunkC2Ev(ptr noundef nonnull align 8 dereferenceable(8) %0) unnamed_addr #1 comdat align 2 {
  %2 = alloca ptr, align 8
  store ptr %0, ptr %2, align 8
  %3 = load ptr, ptr %2, align 8
  store ptr getelementptr inbounds inrange(-16, 32) ({ [6 x ptr] }, ptr @_ZTV20BarrierSetStackChunk, i32 0, i32 0, i32 2), ptr %3, align 8
  ret void
}

; Function Attrs: nounwind uwtable
define internal void @_GLOBAL__sub_I_barrierSet.cpp() #0 section ".text.startup" {
  call void @__cxx_global_var_init()
  call void @__cxx_global_var_init.1()
  call void @__cxx_global_var_init.2()
  call void @__cxx_global_var_init.3()
  ret void
}


!llvm.module.flags = !{!0, !1, !2, !3, !4, !5}

!0 = !{i32 7, !"Dwarf Version", i32 5}
!1 = !{i32 2, !"Debug Info Version", i32 3}
!2 = !{i32 1, !"wchar_size", i32 4}
!3 = !{i32 8, !"PIC Level", i32 2}
!4 = !{i32 7, !"uwtable", i32 2}
!5 = !{i32 7, !"frame-pointer", i32 2}
